; ModuleID = '1/1633.c'
source_filename = "1/1633.c"
target datalayout = "e-m:e-p270:32:32-p271:32:32-p272:64:64-i64:64-f80:128-n8:16:32:64-S128"
target triple = "x86_64-pc-linux-gnu"

@.str = private unnamed_addr constant [3 x i8] c"%d\00", align 1
@.str.1 = private unnamed_addr constant [4 x i8] c"%d\0A\00", align 1

; Function Attrs: noinline nounwind uwtable
define dso_local i32 @fj(i32 %0, i32 %1) #0 {
  %3 = alloca i32, align 4
  %4 = alloca i32, align 4
  %5 = alloca i32, align 4
  %6 = alloca i32, align 4
  %7 = alloca i32, align 4
  %8 = alloca i32, align 4
  store i32 %0, i32* %4, align 4
  store i32 %1, i32* %5, align 4
  store i32 0, i32* %7, align 4
  store i32 0, i32* %8, align 4
  %9 = load i32, i32* %5, align 4
  store i32 %9, i32* %6, align 4
  br label %10

10:                                               ; preds = %31, %2
  %11 = load i32, i32* %6, align 4
  %12 = sitofp i32 %11 to double
  %13 = load i32, i32* %4, align 4
  %14 = sitofp i32 %13 to double
  %15 = call double @sqrt(double %14) #3
  %16 = fcmp ole double %12, %15
  br i1 %16, label %17, label %34

17:                                               ; preds = %10
  %18 = load i32, i32* %4, align 4
  %19 = load i32, i32* %6, align 4
  %20 = srem i32 %18, %19
  %21 = icmp eq i32 %20, 0
  br i1 %21, label %22, label %30

22:                                               ; preds = %17
  %23 = load i32, i32* %7, align 4
  %24 = load i32, i32* %4, align 4
  %25 = load i32, i32* %6, align 4
  %26 = sdiv i32 %24, %25
  %27 = load i32, i32* %6, align 4
  %28 = call i32 @fj(i32 %26, i32 %27)
  %29 = add nsw i32 %23, %28
  store i32 %29, i32* %7, align 4
  store i32 1, i32* %8, align 4
  br label %30

30:                                               ; preds = %22, %17
  br label %31

31:                                               ; preds = %30
  %32 = load i32, i32* %6, align 4
  %33 = add nsw i32 %32, 1
  store i32 %33, i32* %6, align 4
  br label %10

34:                                               ; preds = %10
  %35 = load i32, i32* %8, align 4
  %36 = icmp eq i32 %35, 0
  br i1 %36, label %37, label %38

37:                                               ; preds = %34
  store i32 1, i32* %3, align 4
  br label %41

38:                                               ; preds = %34
  %39 = load i32, i32* %7, align 4
  %40 = add nsw i32 %39, 1
  store i32 %40, i32* %3, align 4
  br label %41

41:                                               ; preds = %38, %37
  %42 = load i32, i32* %3, align 4
  ret i32 %42
}

; Function Attrs: nounwind
declare dso_local double @sqrt(double) #1

; Function Attrs: noinline nounwind uwtable
define dso_local i32 @main() #0 {
  %1 = alloca i32, align 4
  %2 = alloca i32, align 4
  %3 = alloca i32, align 4
  %4 = alloca i32, align 4
  store i32 0, i32* %1, align 4
  %5 = call i32 (i8*, ...) @__isoc99_scanf(i8* getelementptr inbounds ([3 x i8], [3 x i8]* @.str, i64 0, i64 0), i32* %2)
  store i32 0, i32* %3, align 4
  br label %6

6:                                                ; preds = %15, %0
  %7 = load i32, i32* %3, align 4
  %8 = load i32, i32* %2, align 4
  %9 = icmp slt i32 %7, %8
  br i1 %9, label %10, label %18

10:                                               ; preds = %6
  %11 = call i32 (i8*, ...) @__isoc99_scanf(i8* getelementptr inbounds ([3 x i8], [3 x i8]* @.str, i64 0, i64 0), i32* %4)
  %12 = load i32, i32* %4, align 4
  %13 = call i32 @fj(i32 %12, i32 2)
  %14 = call i32 (i8*, ...) @printf(i8* getelementptr inbounds ([4 x i8], [4 x i8]* @.str.1, i64 0, i64 0), i32 %13)
  br label %15

15:                                               ; preds = %10
  %16 = load i32, i32* %3, align 4
  %17 = add nsw i32 %16, 1
  store i32 %17, i32* %3, align 4
  br label %6

18:                                               ; preds = %6
  ret i32 0
}

declare dso_local i32 @__isoc99_scanf(i8*, ...) #2

declare dso_local i32 @printf(i8*, ...) #2


!llvm.module.flags = !{!0}
!llvm.ident = !{!1}

!0 = !{i32 1, !"wchar_size", i32 4}
!1 = !{!"clang version 10.0.0-4ubuntu1 "}
